; ModuleID = '30/2344.c'
source_filename = "30/2344.c"
target datalayout = "e-m:e-p270:32:32-p271:32:32-p272:64:64-i64:64-f80:128-n8:16:32:64-S128"
target triple = "x86_64-pc-linux-gnu"

@.str = private unnamed_addr constant [3 x i8] c"%d\00", align 1
@.str.1 = private unnamed_addr constant [4 x i8] c"%d\0A\00", align 1

; Function Attrs: noinline nounwind uwtable
define dso_local i32 @main() #0 {
  %1 = alloca i32, align 4
  %2 = alloca i32, align 4
  %3 = alloca i32, align 4
  %4 = alloca i32, align 4
  store i32 0, i32* %1, align 4
  store i32 0, i32* %3, align 4
  store i32 1, i32* %4, align 4
  %5 = call i32 (i8*, ...) @__isoc99_scanf(i8* getelementptr inbounds ([3 x i8], [3 x i8]* @.str, i64 0, i64 0), i32* %2)
  store i32 1, i32* %4, align 4
  br label %6

6:                                                ; preds = %69, %0
  %7 = load i32, i32* %4, align 4
  %8 = load i32, i32* %2, align 4
  %9 = icmp sle i32 %7, %8
  br i1 %9, label %10, label %72

10:                                               ; preds = %6
  %11 = load i32, i32* %4, align 4
  %12 = srem i32 %11, 7
  %13 = icmp eq i32 %12, 0
  br i1 %13, label %14, label %15

14:                                               ; preds = %10
  br label %69

15:                                               ; preds = %10
  %16 = load i32, i32* %4, align 4
  %17 = sub nsw i32 %16, 7
  %18 = srem i32 %17, 10
  %19 = icmp eq i32 %18, 0
  br i1 %19, label %20, label %21

20:                                               ; preds = %15
  br label %69

21:                                               ; preds = %15
  %22 = load i32, i32* %4, align 4
  %23 = icmp eq i32 %22, 71
  br i1 %23, label %24, label %25

24:                                               ; preds = %21
  br label %69

25:                                               ; preds = %21
  %26 = load i32, i32* %4, align 4
  %27 = icmp eq i32 %26, 72
  br i1 %27, label %28, label %29

28:                                               ; preds = %25
  br label %69

29:                                               ; preds = %25
  %30 = load i32, i32* %4, align 4
  %31 = icmp eq i32 %30, 73
  br i1 %31, label %32, label %33

32:                                               ; preds = %29
  br label %69

33:                                               ; preds = %29
  %34 = load i32, i32* %4, align 4
  %35 = icmp eq i32 %34, 74
  br i1 %35, label %36, label %37

36:                                               ; preds = %33
  br label %69

37:                                               ; preds = %33
  %38 = load i32, i32* %4, align 4
  %39 = icmp eq i32 %38, 75
  br i1 %39, label %40, label %41

40:                                               ; preds = %37
  br label %69

41:                                               ; preds = %37
  %42 = load i32, i32* %4, align 4
  %43 = icmp eq i32 %42, 76
  br i1 %43, label %44, label %45

44:                                               ; preds = %41
  br label %69

45:                                               ; preds = %41
  %46 = load i32, i32* %4, align 4
  %47 = icmp eq i32 %46, 78
  br i1 %47, label %48, label %49

48:                                               ; preds = %45
  br label %69

49:                                               ; preds = %45
  %50 = load i32, i32* %4, align 4
  %51 = icmp eq i32 %50, 79
  br i1 %51, label %52, label %53

52:                                               ; preds = %49
  br label %69

53:                                               ; preds = %49
  %54 = load i32, i32* %3, align 4
  %55 = load i32, i32* %4, align 4
  %56 = load i32, i32* %4, align 4
  %57 = mul nsw i32 %55, %56
  %58 = add nsw i32 %54, %57
  store i32 %58, i32* %3, align 4
  br label %59

59:                                               ; preds = %53
  br label %60

60:                                               ; preds = %59
  br label %61

61:                                               ; preds = %60
  br label %62

62:                                               ; preds = %61
  br label %63

63:                                               ; preds = %62
  br label %64

64:                                               ; preds = %63
  br label %65

65:                                               ; preds = %64
  br label %66

66:                                               ; preds = %65
  br label %67

67:                                               ; preds = %66
  br label %68

68:                                               ; preds = %67
  br label %69

69:                                               ; preds = %68, %52, %48, %44, %40, %36, %32, %28, %24, %20, %14
  %70 = load i32, i32* %4, align 4
  %71 = add nsw i32 %70, 1
  store i32 %71, i32* %4, align 4
  br label %6

72:                                               ; preds = %6
  %73 = load i32, i32* %3, align 4
  %74 = call i32 (i8*, ...) @printf(i8* getelementptr inbounds ([4 x i8], [4 x i8]* @.str.1, i64 0, i64 0), i32 %73)
  ret i32 0
}

declare dso_local i32 @__isoc99_scanf(i8*, ...) #1

declare dso_local i32 @printf(i8*, ...) #1


!llvm.module.flags = !{!0}
!llvm.ident = !{!1}

!0 = !{i32 1, !"wchar_size", i32 4}
!1 = !{!"clang version 10.0.0-4ubuntu1 "}
